; ModuleID = 'source-C-CXX/55/2790.c'
source_filename = "source-C-CXX/55/2790.c"
target datalayout = "e-m:e-p270:32:32-p271:32:32-p272:64:64-i64:64-f80:128-n8:16:32:64-S128"
target triple = "x86_64-pc-linux-gnu"

%struct._IO_FILE = type { i32, i8*, i8*, i8*, i8*, i8*, i8*, i8*, i8*, i8*, i8*, i8*, %struct._IO_marker*, %struct._IO_FILE*, i32, i32, i64, i16, i8, [1 x i8], i8*, i64, %struct._IO_codecvt*, %struct._IO_wide_data*, %struct._IO_FILE*, i8*, i64, i32, [20 x i8] }
%struct._IO_marker = type opaque
%struct._IO_codecvt = type opaque
%struct._IO_wide_data = type opaque

@.str = private unnamed_addr constant [3 x i8] c"%d\00", align 1
@stdout = external local_unnamed_addr global %struct._IO_FILE*, align 8

; Function Attrs: nofree nounwind sspstrong uwtable
define dso_local void @main() local_unnamed_addr #0 {
  %1 = alloca i32, align 4
  %2 = bitcast i32* %1 to i8*
  call void @llvm.lifetime.start.p0i8(i64 4, i8* nonnull %2) #3
  %3 = call i32 (i8*, ...) @__isoc99_scanf(i8* getelementptr inbounds ([3 x i8], [3 x i8]* @.str, i64 0, i64 0), i32* nonnull %1)
  %4 = load i32, i32* %1, align 4, !tbaa !5
  %5 = add i32 %4, 9
  %6 = icmp ult i32 %5, 19
  br i1 %6, label %16, label %7

7:                                                ; preds = %0, %7
  %8 = phi i32 [ %9, %7 ], [ %4, %0 ]
  %9 = sdiv i32 %8, 10
  %10 = srem i32 %8, 10
  %11 = add nsw i32 %10, 48
  %12 = load %struct._IO_FILE*, %struct._IO_FILE** @stdout, align 8, !tbaa !9
  %13 = call i32 @putc(i32 %11, %struct._IO_FILE* %12) #3
  %14 = add nsw i32 %9, 9
  %15 = icmp ult i32 %14, 19
  br i1 %15, label %16, label %7

16:                                               ; preds = %7, %0
  %17 = phi i32 [ %4, %0 ], [ %9, %7 ]
  %18 = add nsw i32 %17, 48
  %19 = load %struct._IO_FILE*, %struct._IO_FILE** @stdout, align 8, !tbaa !9
  %20 = call i32 @putc(i32 %18, %struct._IO_FILE* %19) #3
  call void @llvm.lifetime.end.p0i8(i64 4, i8* nonnull %2) #3
  ret void
}

; Function Attrs: argmemonly mustprogress nofree nosync nounwind willreturn
declare void @llvm.lifetime.start.p0i8(i64 immarg, i8* nocapture) #1

; Function Attrs: nofree nounwind
declare noundef i32 @__isoc99_scanf(i8* nocapture noundef readonly, ...) local_unnamed_addr #2

; Function Attrs: nofree nounwind sspstrong uwtable
define dso_local void @NIXU(i32 %0) local_unnamed_addr #0 {
  %2 = add i32 %0, 9
  %3 = icmp ult i32 %2, 19
  br i1 %3, label %13, label %4

4:                                                ; preds = %1, %4
  %5 = phi i32 [ %6, %4 ], [ %0, %1 ]
  %6 = sdiv i32 %5, 10
  %7 = srem i32 %5, 10
  %8 = add nsw i32 %7, 48
  %9 = load %struct._IO_FILE*, %struct._IO_FILE** @stdout, align 8, !tbaa !9
  %10 = tail call i32 @putc(i32 %8, %struct._IO_FILE* %9) #3
  %11 = add nsw i32 %6, 9
  %12 = icmp ult i32 %11, 19
  br i1 %12, label %13, label %4

13:                                               ; preds = %4, %1
  %14 = phi i32 [ %0, %1 ], [ %6, %4 ]
  %15 = add nsw i32 %14, 48
  %16 = load %struct._IO_FILE*, %struct._IO_FILE** @stdout, align 8, !tbaa !9
  %17 = tail call i32 @putc(i32 %15, %struct._IO_FILE* %16) #3
  ret void
}

; Function Attrs: argmemonly mustprogress nofree nosync nounwind willreturn
declare void @llvm.lifetime.end.p0i8(i64 immarg, i8* nocapture) #1

; Function Attrs: nofree nounwind
declare noundef i32 @putc(i32 noundef, %struct._IO_FILE* nocapture noundef) local_unnamed_addr #2


!llvm.module.flags = !{!0, !1, !2, !3}
!llvm.ident = !{!4}

!0 = !{i32 1, !"wchar_size", i32 4}
!1 = !{i32 7, !"PIC Level", i32 2}
!2 = !{i32 7, !"PIE Level", i32 2}
!3 = !{i32 7, !"uwtable", i32 1}
!4 = !{!"clang version 13.0.0"}
!5 = !{!6, !6, i64 0}
!6 = !{!"int", !7, i64 0}
!7 = !{!"omnipotent char", !8, i64 0}
!8 = !{!"Simple C/C++ TBAA"}
!9 = !{!10, !10, i64 0}
!10 = !{!"any pointer", !7, i64 0}
